target datalayout = "e-m:e-p270:32:32-p271:32:32-p272:64:64-i64:64-i128:128-f80:128-n8:16:32:64-S128"
target triple = "x86_64-pc-linux-gnu"

%"class.open_spiel::dots_and_boxes::Move" = type { i32, i32, i32, i32, i32 }

; Function Attrs: mustprogress nounwind uwtable
define noundef i32 @_ZN10open_spiel14dots_and_boxes4Move7GetCellEv(ptr noundef nonnull align 4 dereferenceable(20) %0) #5 align 2 {
  %2 = alloca ptr, align 8
  store ptr %0, ptr %2, align 8
  %3 = load ptr, ptr %2, align 8
  %4 = getelementptr inbounds nuw %"class.open_spiel::dots_and_boxes::Move", ptr %3, i32 0, i32 0
  %5 = load i32, ptr %4, align 4
  %6 = getelementptr inbounds nuw %"class.open_spiel::dots_and_boxes::Move", ptr %3, i32 0, i32 4
  %7 = load i32, ptr %6, align 4
  %8 = add nsw i32 %7, 1
  %9 = mul nsw i32 %5, %8
  %10 = getelementptr inbounds nuw %"class.open_spiel::dots_and_boxes::Move", ptr %3, i32 0, i32 1
  %11 = load i32, ptr %10, align 4
  %12 = add nsw i32 %9, %11
  ret i32 %12
}